

HI-TECH Software PIC PRO Macro Assembler V9.83 build 10920 
                                                                                               Mon Jun 19 16:06:27 2017

HI-TECH Software Omniscient Code Generator (PRO mode) build 10920
     1                           	processor	16F690
     2                           	opt	pw 120
     3                           	opt	pm
     4                           	psect	text36,local,class=CODE,delta=2
     5                           	psect	cinit,global,class=CODE,delta=2
     6                           	psect	cstackCOMMON,global,class=COMMON,space=1,delta=1
     7                           	psect	maintext,global,class=CODE,delta=2
     8                           	psect	text37,local,class=CODE,delta=2
     9                           	psect	text39,local,class=CODE,delta=2
    10                           	psect	pa_nodes,global,class=CODE,delta=2
    11                           	dabs	1,0x7E,2
    12  000A                     
    13                           	psect	text36
    14  0000                     __ptext36:	
    15  001F                     _L_ADCON0bits	set	31
    16  0090                     _OSCTUNE	set	144
    17  0085                     _TRISA	set	133
    18  04FF                     _VCFG0	set	1279
    19  010D                     _EEADR	set	269
    20  010F                     _EEADRH	set	271
    21  010C                     _EEDAT	set	268
    22  010E                     _EEDATH	set	270
    23  0105                     _LATA	set	261
    24  0119                     _VRTUNE	set	281
    25  08F8                     _ANTM	set	2296
    26  0C67                     _EEPGD	set	3175
    27  0C60                     _EERD	set	3168
    28                           
    29                           	psect	cinit
    30  0798                     start_initialization:	
    31  0798                     end_of_initialization:	
    32                           ;End of C runtime variable initialization code
    33                           
    34  0798  0183               	clrf	3
    35  0799  118A  2FBF         	ljmp	_main	;jump to C main() function
    36                           
    37                           	psect	cstackCOMMON
    38  0070                     __pcstackCOMMON:	
    39  0070                     ?_cfw_valid:	
    40  0070                     ?_misc_eer:	
    41                           ; 1 bytes @ 0x0
    42                           
    43  0070                     ?_main:	
    44                           ; 2 bytes @ 0x0
    45                           
    46  0070                     misc_eer@address:	
    47                           ; 2 bytes @ 0x0
    48                           
    49                           
    50                           ; 2 bytes @ 0x0
    51  0070                     	ds	2
    52  0072                     ??_misc_eer:	
    53  0072                     misc_eer@type:	
    54                           ; 0 bytes @ 0x2
    55                           
    56                           
    57                           ; 1 bytes @ 0x2
    58  0072                     	ds	1
    59  0073                     ??_cfw_valid:	
    60  0073                     cfw_valid@btmp:	
    61                           ; 0 bytes @ 0x3
    62                           
    63                           
    64                           ; 1 bytes @ 0x3
    65  0073                     	ds	1
    66  0074                     ??_main:	
    67                           
    68                           ; 0 bytes @ 0x4
    69  0074                     	ds	1
    70                           
    71                           	psect	maintext
    72  07BF                     __pmaintext:	
    73 ;;Data sizes: Strings 0, constant 0, data 0, bss 0, persistent 0 stack 0
    74 ;;Auto spaces:   Size  Autos    Used
    75 ;; COMMON          14      5       5
    76 ;; BANK0           80      0       0
    77 ;; BANK1           80      0       0
    78 ;; BANK2           80      0       0
    79 ;;
    80 ;; Pointer list with targets:
    81 ;; ?_misc_eer	unsigned int  size(1) Largest target is 0
    82 ;;
    83 ;; sp__misc_utoa	PTR unsigned char  size(1) Largest target is 0
    84 ;;
    85 ;;
    86 ;; Critical Paths under _main in COMMON
    87 ;;
    88 ;;   _main->_cfw_valid
    89 ;;   _cfw_valid->_misc_eer
    90 ;;
    91 ;; Critical Paths under _main in BANK0
    92 ;;
    93 ;;   None.
    94 ;;
    95 ;; Critical Paths under _main in BANK1
    96 ;;
    97 ;;   None.
    98 ;;
    99 ;; Critical Paths under _main in BANK2
   100 ;;
   101 ;;   None.
   102 ;;
   103 ;;Main: autosize = 0, tempsize = 1, incstack = 0, save=0
   104 ;;
   105 ;;
   106 ;;Call Graph Tables:
   107 ;;
   108 ;; ---------------------------------------------------------------------------------
   109 ;; (Depth) Function   	        Calls       Base Space   Used Autos Params    Refs
   110 ;; ---------------------------------------------------------------------------------
   111 ;; (0) _main                                                 1     1      0     105
   112 ;;                                              4 COMMON     1     1      0
   113 ;;                          _cfw_valid
   114 ;;                           _misc_eer
   115 ;; ---------------------------------------------------------------------------------
   116 ;; (1) _cfw_valid                                            1     1      0      60
   117 ;;                                              3 COMMON     1     1      0
   118 ;;                           _misc_eer
   119 ;; ---------------------------------------------------------------------------------
   120 ;; (1) _misc_eer                                             3     1      2      45
   121 ;;                                              0 COMMON     3     1      2
   122 ;; ---------------------------------------------------------------------------------
   123 ;; Estimated maximum stack depth 1
   124 ;; ---------------------------------------------------------------------------------
   125 ;; Call Graph Graphs:
   126 ;; _main (ROOT)
   127 ;;   _cfw_valid
   128 ;;     _misc_eer
   129 ;;   _misc_eer
   130 ;;
   131 ;; Address spaces:
   132 ;;Name               Size   Autos  Total    Cost      Usage
   133 ;;BITCOMMON            E      0       0       0        0.0%
   134 ;;EEDATA             100      0       0       0        0.0%
   135 ;;NULL                 0      0       0       0        0.0%
   136 ;;CODE                 0      0       0       0        0.0%
   137 ;;COMMON               E      5       5       1       35.7%
   138 ;;BITSFR0              0      0       0       1        0.0%
   139 ;;SFR0                 0      0       0       1        0.0%
   140 ;;BITSFR1              0      0       0       2        0.0%
   141 ;;SFR1                 0      0       0       2        0.0%
   142 ;;STACK                0      0       2       2        0.0%
   143 ;;BANK0               50      0       0       3        0.0%
   144 ;;BITBANK1            50      0       0       4        0.0%
   145 ;;BITSFR3              0      0       0       4        0.0%
   146 ;;SFR3                 0      0       0       4        0.0%
   147 ;;BANK1               50      0       0       5        0.0%
   148 ;;BITSFR2              0      0       0       5        0.0%
   149 ;;SFR2                 0      0       0       5        0.0%
   150 ;;BITBANK2            50      0       0       6        0.0%
   151 ;;BANK2               50      0       0       7        0.0%
   152 ;;ABS                  0      0       0       8        0.0%
   153 ;;BITBANK0            50      0       0       9        0.0%
   154 ;;DATA                 0      0       0      10        0.0%
   155                           
   156                           
   157 ;; *************** function _main *****************
   158 ;; Defined at:
   159 ;;		line 10 in file "E:\Projects\PDN1609\lgt8f690a_demo_v1.0\lgt8f690a_gpio\gpio_scan.c"
   160 ;; Parameters:    Size  Location     Type
   161 ;;		None
   162 ;; Auto vars:     Size  Location     Type
   163 ;;		None
   164 ;; Return value:  Size  Location     Type
   165 ;;                  2  1856[COMMON] int 
   166 ;; Registers used:
   167 ;;		wreg, status,2, status,0, pclath, cstack
   168 ;; Tracked objects:
   169 ;;		On entry : 17F/0
   170 ;;		On exit  : 0/0
   171 ;;		Unchanged: 0/0
   172 ;; Data sizes:     COMMON   BANK0   BANK1   BANK2
   173 ;;      Params:         0       0       0       0
   174 ;;      Locals:         0       0       0       0
   175 ;;      Temps:          1       0       0       0
   176 ;;      Totals:         1       0       0       0
   177 ;;Total ram usage:        1 bytes
   178 ;; Hardware stack levels required when called:    2
   179 ;; This function calls:
   180 ;;		_cfw_valid
   181 ;;		_misc_eer
   182 ;; This function is called by:
   183 ;;		Startup code after reset
   184 ;; This function uses a non-reentrant model
   185 ;;
   186  07BF                     _main:	
   187                           
   188                           ;gpio_scan.c: 12: if(cfw_valid())
   189                           
   190                           ; Regs used in _main: [wreg+status,2+status,0+pclath+cstack]
   191  07BF  118A  279B  118A   	fcall	_cfw_valid
   192  07C2  3A00               	xorlw	0
   193  07C3  1903               	skipnz
   194  07C4  2FCF               	goto	l4993
   195                           
   196                           ;gpio_scan.c: 13: OSCTUNE = misc_eer(1, 0x1007);
   197  07C5  3007               	movlw	7
   198  07C6  00F0               	movwf	?_misc_eer
   199  07C7  3010               	movlw	16
   200  07C8  00F1               	movwf	?_misc_eer+1
   201  07C9  3001               	movlw	1
   202  07CA  118A  27A8  118A   	fcall	_misc_eer
   203  07CD  0870               	movf	?_misc_eer,w
   204  07CE  2FD0               	goto	L1
   205  07CF                     l4993:	
   206                           
   207                           ;gpio_scan.c: 14: else
   208                           ;gpio_scan.c: 15: OSCTUNE = 0x92;
   209  07CF  3092               	movlw	146
   210  07D0                     L1:	
   211  07D0  1683               	bsf	3,5	;RP0=1, select bank1
   212  07D1  1303               	bcf	3,6	;RP1=0, select bank1
   213  07D2  0090               	movwf	16	;volatile
   214                           
   215                           ;gpio_scan.c: 21: VCFG0 = 1;
   216  07D3  179F               	bsf	31,7
   217                           
   218                           ;gpio_scan.c: 22: ANTM = 1;
   219  07D4  1283               	bcf	3,5	;RP0=0, select bank2
   220  07D5  1703               	bsf	3,6	;RP1=1, select bank2
   221  07D6  141F               	bsf	31,0
   222                           
   223                           ;gpio_scan.c: 23: L_ADCON0bits.CHS = 0x0a;
   224  07D7  1303               	bcf	3,6	;RP1=0, select bank0
   225  07D8  081F               	movf	31,w	;volatile
   226  07D9  39C3               	andlw	-61
   227  07DA  3828               	iorlw	40
   228  07DB  009F               	movwf	31	;volatile
   229                           
   230                           ;gpio_scan.c: 26: if(cfw_valid())
   231  07DC  118A  279B  118A   	fcall	_cfw_valid
   232  07DF  3A00               	xorlw	0
   233  07E0  1903               	skipnz
   234  07E1  2FEC               	goto	l5005
   235                           
   236                           ;gpio_scan.c: 27: VRTUNE = misc_eer(1, 0x100d);
   237  07E2  300D               	movlw	13
   238  07E3  00F0               	movwf	?_misc_eer
   239  07E4  3010               	movlw	16
   240  07E5  00F1               	movwf	?_misc_eer+1
   241  07E6  3001               	movlw	1
   242  07E7  118A  27A8  118A   	fcall	_misc_eer
   243  07EA  0870               	movf	?_misc_eer,w
   244  07EB  2FED               	goto	L2
   245  07EC                     l5005:	
   246                           
   247                           ;gpio_scan.c: 28: else
   248                           ;gpio_scan.c: 29: VRTUNE = 0x2a;
   249  07EC  302A               	movlw	42
   250  07ED                     L2:	
   251  07ED  0099               	movwf	25	;volatile
   252                           
   253                           ;gpio_scan.c: 32: _delay((unsigned long)((1)*(4000000/4000.0)));
   254  07EE  30F9               	movlw	249
   255  07EF  00F4               	movwf	??_main
   256  07F0                     u67:	
   257  07F0  0064               	clrwdt
   258  07F1  0BF4               	decfsz	??_main,f
   259  07F2  2FF0               	goto	u67
   260  07F3  2FF4               	nop2	;nop
   261  07F4  0064               	clrwdt
   262                           
   263                           ;gpio_scan.c: 34: _nop();
   264  07F5  0000               	nop
   265                           
   266                           ;gpio_scan.c: 35: _nop();
   267  07F6  0000               	nop
   268                           
   269                           ;gpio_scan.c: 38: TRISA = 0x80;
   270  07F7  3080               	movlw	128
   271  07F8  1683               	bsf	3,5	;RP0=1, select bank1
   272  07F9  1303               	bcf	3,6	;RP1=0, select bank1
   273  07FA  0085               	movwf	5	;volatile
   274  07FB                     l5011:	
   275                           
   276                           ;gpio_scan.c: 41: LATA = ~LATA;
   277  07FB  1283               	bcf	3,5	;RP0=0, select bank2
   278  07FC  1703               	bsf	3,6	;RP1=1, select bank2
   279  07FD  0985               	comf	5,f	;volatile
   280                           
   281                           ;gpio_scan.c: 43: _delay((unsigned long)((2)*(4000000/4000000.0)));
   282  07FE  2FFF               	nop2	;2 cycle nop
   283  07FF  2FFB               	goto	l5011
   284  0800                     __end_of_main:	
   285                           
   286                           	psect	text37
   287  079B                     __ptext37:	
   288 ;; =============== function _main ends ============
   289                           
   290                           
   291 ;; *************** function _cfw_valid *****************
   292 ;; Defined at:
   293 ;;		line 85 in file "E:\Projects\PDN1609\lgt8f690a_demo_v1.0\lgt8f690a_gpio\misc.c"
   294 ;; Parameters:    Size  Location     Type
   295 ;;		None
   296 ;; Auto vars:     Size  Location     Type
   297 ;;  btmp            1    3[COMMON] unsigned char 
   298 ;; Return value:  Size  Location     Type
   299 ;;                  1    wreg      unsigned char 
   300 ;; Registers used:
   301 ;;		wreg, pclath, cstack
   302 ;; Tracked objects:
   303 ;;		On entry : 60/0
   304 ;;		On exit  : 60/40
   305 ;;		Unchanged: FFE00/0
   306 ;; Data sizes:     COMMON   BANK0   BANK1   BANK2
   307 ;;      Params:         0       0       0       0
   308 ;;      Locals:         1       0       0       0
   309 ;;      Temps:          0       0       0       0
   310 ;;      Totals:         1       0       0       0
   311 ;;Total ram usage:        1 bytes
   312 ;; Hardware stack levels used:    1
   313 ;; Hardware stack levels required when called:    1
   314 ;; This function calls:
   315 ;;		_misc_eer
   316 ;; This function is called by:
   317 ;;		_main
   318 ;; This function uses a non-reentrant model
   319 ;;
   320  079B                     _cfw_valid:	
   321                           
   322                           ;misc.c: 86: uint8_t btmp;
   323                           ;misc.c: 88: btmp = misc_eer(1, 0x100f);
   324                           
   325                           ; Regs used in _cfw_valid: [wreg+pclath+cstack]
   326  079B  300F               	movlw	15
   327  079C  00F0               	movwf	?_misc_eer
   328  079D  3010               	movlw	16
   329  079E  00F1               	movwf	?_misc_eer+1
   330  079F  3001               	movlw	1
   331  07A0  27A8  118A         	fcall	_misc_eer
   332  07A2  0870               	movf	?_misc_eer,w
   333  07A3  00F3               	movwf	cfw_valid@btmp
   334                           
   335                           ;misc.c: 90: if(btmp == 0x5a)
   336  07A4  3A5A               	xorlw	90
   337  07A5  1903               	btfsc	3,2
   338                           
   339                           ;misc.c: 91: return 1;
   340  07A6  3401               	retlw	1
   341                           
   342                           ;misc.c: 93: return 0;
   343  07A7  3400               	retlw	0
   344  07A8                     __end_of_cfw_valid:	
   345  07A8                     __ptext38:	
   346 ;; =============== function _cfw_valid ends ============
   347                           
   348                           
   349 ;; *************** function _misc_eer *****************
   350 ;; Defined at:
   351 ;;		line 6 in file "E:\Projects\PDN1609\lgt8f690a_demo_v1.0\lgt8f690a_gpio\misc.c"
   352 ;; Parameters:    Size  Location     Type
   353 ;;  type            1    wreg     unsigned char 
   354 ;;  address         2    0[COMMON] unsigned int 
   355 ;; Auto vars:     Size  Location     Type
   356 ;;  type            1    2[COMMON] unsigned char 
   357 ;; Return value:  Size  Location     Type
   358 ;;                  2    0[COMMON] unsigned int 
   359 ;; Registers used:
   360 ;;		wreg
   361 ;; Tracked objects:
   362 ;;		On entry : 20/40
   363 ;;		On exit  : 60/40
   364 ;;		Unchanged: FFE00/0
   365 ;; Data sizes:     COMMON   BANK0   BANK1   BANK2
   366 ;;      Params:         2       0       0       0
   367 ;;      Locals:         1       0       0       0
   368 ;;      Temps:          0       0       0       0
   369 ;;      Totals:         3       0       0       0
   370 ;;Total ram usage:        3 bytes
   371 ;; Hardware stack levels used:    1
   372 ;; This function calls:
   373 ;;		Nothing
   374 ;; This function is called by:
   375 ;;		_main
   376 ;;		_cfw_valid
   377 ;; This function uses a non-reentrant model
   378 ;;
   379  07A8                     _misc_eer:	
   380                           
   381                           ; Regs used in _misc_eer: [wreg]
   382                           ;misc_eer@type stored from wreg
   383  07A8  00F2               	movwf	misc_eer@type
   384                           
   385                           ;misc.c: 7: EEADR = address & 0xff;
   386  07A9  0870               	movf	misc_eer@address,w
   387  07AA  1703               	bsf	3,6	;RP1=1, select bank2
   388  07AB  008D               	movwf	13	;volatile
   389                           
   390                           ;misc.c: 8: EEADRH = (address >> 8) & 0xff;
   391  07AC  0871               	movf	misc_eer@address+1,w
   392  07AD  008F               	movwf	15	;volatile
   393                           
   394                           ;misc.c: 10: EEPGD = type & 1;
   395  07AE  1C72               	btfss	misc_eer@type,0
   396  07AF  2FB4               	goto	u10
   397  07B0  1683               	bsf	3,5	;RP0=1, select bank3
   398  07B1  1703               	bsf	3,6	;RP1=1, select bank3
   399  07B2  178C               	bsf	12,7
   400  07B3  2FB7               	goto	l4973
   401  07B4                     u10:	
   402  07B4  1683               	bsf	3,5	;RP0=1, select bank3
   403  07B5  1703               	bsf	3,6	;RP1=1, select bank3
   404  07B6  138C               	bcf	12,7
   405  07B7                     l4973:	
   406                           
   407                           ;misc.c: 12: EERD = 1;
   408  07B7  140C               	bsf	12,0
   409                           
   410                           ;misc.c: 14: return (EEDATH << 8) | (EEDAT);
   411  07B8  1283               	bcf	3,5	;RP0=0, select bank2
   412  07B9  080E               	movf	14,w	;volatile
   413  07BA  00F1               	movwf	?_misc_eer+1
   414  07BB  01F0               	clrf	?_misc_eer
   415  07BC  080C               	movf	12,w	;volatile
   416  07BD  04F0               	iorwf	?_misc_eer,f
   417  07BE  0008               	return
   418  07BF                     __end_of_misc_eer:	
   419                           
   420                           	psect	text39
   421  0000                     __ptext39:	
   422 ;; =============== function _misc_eer ends ============
   423                           
   424  007E                     btemp	set	126	;btemp
   425  007E                     wtemp0	set	126


HI-TECH Software PICC Macro Assembler V9.83 build 10920 
Symbol Table                                                                                   Mon Jun 19 16:06:27 2017

                  u10 07B4                    u67 07F0                  l5001 0000                  l5011 07FB  
                l5013 0000                  l5005 07EC                  l5007 0000                  l5009 0000  
                l3713 0000                  l4971 0000                  l4973 07B7                  l4969 0000  
                l4977 0000                  l4993 07CF                  l4979 0000                  l4997 0000  
                l4989 0000                  l4999 0000                  _EERD 0C60                  _ANTM 08F8  
                _LATA 0105                  _main 07BF                  btemp 007E                  start 0000  
               ?_main 0070                 _EEADR 010D                 _EEDAT 010C                 _EEPGD 0C67  
               _VCFG0 04FF                 _TRISA 0085                 status 0003                 wtemp0 007E  
        __end_of_main 0800                ??_main 0074                _EEADRH 010F                _EEDATH 010E  
              _VRTUNE 0119      __end_of_misc_eer 07BF        __pcstackCOMMON 0070    __size_of_cfw_valid 000D  
          __pmaintext 07BF       misc_eer@address 0070               _OSCTUNE 0090             ?_misc_eer 0070  
   __end_of_cfw_valid 07A8  end_of_initialization 0798            ??_misc_eer 0072          misc_eer@type 0072  
 start_initialization 0798     __size_of_misc_eer 0017             _cfw_valid 079B            ?_cfw_valid 0070  
        _L_ADCON0bits 001F         cfw_valid@btmp 0073              __ptext36 0000              __ptext37 079B  
            __ptext38 07A8              __ptext39 0000         __size_of_main 0041              _misc_eer 07A8  
         ??_cfw_valid 0073  
